Certificate:
    Data:
        Version: 3 (0x2)
        Serial Number:
            5f:9b:3f:eb:8a:4a:03:51:b7:99:25:03:76:a7:bf:1e:10:3c:4c:85
        Signature Algorithm: sha256WithRSAEncryption
        Issuer: CN = localhost
        Validity
            Not Before: Jun 16 20:32:12 2025 GMT
            Not After : Jul 16 20:32:12 2025 GMT
        Subject: CN = localhost
        Subject Public Key Info:
            Public Key Algorithm: rsaEncryption
                Public-Key: (2048 bit)
                Modulus:
                    00:92:da:ff:ba:e3:df:08:25:d5:25:9b:2b:0f:c8:
                    7a:84:39:d3:f5:6e:b0:78:88:1e:cf:cf:65:66:1b:
                    46:0d:ee:fb:d8:7d:52:a6:44:03:fc:2f:21:8b:fc:
                    96:98:b1:ad:27:c1:b1:88:c0:00:73:d9:a5:53:84:
                    90:42:c3:ba:c4:c4:85:16:c3:f0:4f:1c:02:31:23:
                    47:a0:15:20:6e:5b:cc:66:5a:95:c6:b6:e8:4d:5c:
                    b1:13:39:99:53:71:d6:47:fd:cc:a5:40:f7:51:9e:
                    5a:ff:98:2c:57:e7:9c:b0:7e:e7:88:36:9e:07:38:
                    72:c3:ee:10:a6:58:eb:1d:58:9d:99:58:46:0d:e6:
                    0f:de:25:75:e4:7a:a1:e3:b6:da:16:ed:af:af:a8:
                    b6:aa:60:da:9b:8b:95:9b:44:c8:f5:76:0e:e4:e8:
                    2c:ba:b6:d7:50:47:65:a8:56:87:b3:75:29:f8:f0:
                    08:c1:39:ca:60:9e:de:74:05:fd:e2:61:1a:47:05:
                    ec:67:7f:1b:7a:0a:0d:eb:c5:7b:b3:59:74:70:2a:
                    d0:f9:7f:7f:10:94:14:b6:e9:28:c7:96:d8:68:7d:
                    bc:43:4a:77:1c:c9:0f:f0:aa:66:49:c1:c2:9a:7b:
                    e7:e5:52:3b:df:42:64:10:6c:89:f3:ee:43:ab:aa:
                    55:f7
                Exponent: 65537 (0x10001)
        X509v3 extensions:
            X509v3 Subject Key Identifier: 
                1F:79:AA:6A:15:BF:0A:B8:33:62:9B:B5:9E:71:70:BC:B4:10:09:AE
            X509v3 Authority Key Identifier: 
                1F:79:AA:6A:15:BF:0A:B8:33:62:9B:B5:9E:71:70:BC:B4:10:09:AE
            X509v3 Basic Constraints: critical
                CA:TRUE
    Signature Algorithm: sha256WithRSAEncryption
    Signature Value:
        8a:e1:69:bd:f2:52:cf:7c:87:54:ab:ff:98:2d:7f:de:61:15:
        7f:c0:fe:3f:c4:51:45:7d:6c:1e:c9:44:99:28:fa:da:02:5f:
        b4:80:54:2d:a1:b9:32:6d:f4:ec:fe:91:83:5d:26:cc:52:d2:
        fb:02:da:1e:9c:91:26:aa:75:75:8e:86:5e:bb:c9:c2:f6:31:
        63:09:47:da:1d:bf:c6:32:4a:4c:57:ef:30:9c:43:d7:c1:35:
        77:4a:87:63:bd:0c:a0:76:bd:f5:ce:4f:bf:fd:3b:3f:9c:cf:
        b0:2d:41:b0:83:c7:fd:20:8f:9c:a2:5e:78:f0:a2:a7:2c:ed:
        b5:ae:d1:d0:73:e2:c4:8b:06:ca:c1:45:d9:fa:f4:6b:ac:95:
        5a:c2:41:25:d1:c2:ab:c6:a6:e3:82:17:6d:6b:3a:55:55:18:
        a6:e2:2f:3a:29:aa:bc:23:c6:7a:41:72:bb:49:46:db:22:fa:
        8c:9f:e7:2e:07:74:e3:11:74:a4:62:91:0e:d3:23:1d:fa:09:
        9a:30:ed:bf:75:5c:59:cb:69:3c:1a:4c:ef:f2:b5:a9:15:d8:
        4e:cf:1a:a3:fc:36:42:ba:2d:9e:3c:56:ba:fe:8b:cc:36:14:
        10:09:cd:5b:1c:03:b3:52:dd:8c:ab:11:7f:29:ed:24:90:36:
        f5:30:78:04
-----BEGIN CERTIFICATE-----
MIIDCTCCAfGgAwIBAgIUX5s/64pKA1G3mSUDdqe/HhA8TIUwDQYJKoZIhvcNAQEL
BQAwFDESMBAGA1UEAwwJbG9jYWxob3N0MB4XDTI1MDYxNjIwMzIxMloXDTI1MDcx
NjIwMzIxMlowFDESMBAGA1UEAwwJbG9jYWxob3N0MIIBIjANBgkqhkiG9w0BAQEF
AAOCAQ8AMIIBCgKCAQEAktr/uuPfCCXVJZsrD8h6hDnT9W6weIgez89lZhtGDe77
2H1SpkQD/C8hi/yWmLGtJ8GxiMAAc9mlU4SQQsO6xMSFFsPwTxwCMSNHoBUgblvM
ZlqVxrboTVyxEzmZU3HWR/3MpUD3UZ5a/5gsV+ecsH7niDaeBzhyw+4QpljrHVid
mVhGDeYP3iV15Hqh47baFu2vr6i2qmDam4uVm0TI9XYO5OgsurbXUEdlqFaHs3Up
+PAIwTnKYJ7edAX94mEaRwXsZ38begoN68V7s1l0cCrQ+X9/EJQUtukox5bYaH28
Q0p3HMkP8KpmScHCmnvn5VI730JkEGyJ8+5Dq6pV9wIDAQABo1MwUTAdBgNVHQ4E
FgQUH3mqahW/CrgzYpu1nnFwvLQQCa4wHwYDVR0jBBgwFoAUH3mqahW/CrgzYpu1
nnFwvLQQCa4wDwYDVR0TAQH/BAUwAwEB/zANBgkqhkiG9w0BAQsFAAOCAQEAiuFp
vfJSz3yHVKv/mC1/3mEVf8D+P8RRRX1sHslEmSj62gJftIBULaG5Mm307P6Rg10m
zFLS+wLaHpyRJqp1dY6GXrvJwvYxYwlH2h2/xjJKTFfvMJxD18E1d0qHY70MoHa9
9c5Pv/07P5zPsC1BsIPH/SCPnKJeePCipyztta7R0HPixIsGysFF2fr0a6yVWsJB
JdHCq8am44IXbWs6VVUYpuIvOimqvCPGekFyu0lG2yL6jJ/nLgd04xF0pGKRDtMj
HfoJmjDtv3VcWctpPBpM7/K1qRXYTs8ao/w2QrotnjxWuv6LzDYUEAnNWxwDs1Ld
jKsRfyntJJA29TB4BA==
-----END CERTIFICATE-----
